; Function Attrs: mustprogress nofree norecurse nosync nounwind willreturn memory(read, inaccessiblemem: none) uwtable
define hidden noundef ptr @_ZN14PhaseIdealLoop11loop_iv_phiEP4NodeS1_S1_P13IdealLoopTree(ptr nocapture noundef nonnull readnone align 8 dereferenceable(237) %0, ptr noundef readonly %1, ptr noundef readnone %2, ptr noundef readnone %3, ptr nocapture noundef readnone %4) local_unnamed_addr #3 align 2 {
  %6 = getelementptr inbounds i8, ptr %1, i64 44
  %7 = load i32, ptr %6, align 4
  %8 = and i32 %7, 15
  %9 = icmp eq i32 %8, 12
  br i1 %9, label %10, label %15

10:                                               ; preds = %5
  %.not = icmp eq ptr %2, null
  %.not10 = icmp eq ptr %2, %1
  %or.cond = or i1 %.not, %.not10
  br i1 %or.cond, label %11, label %15

11:                                               ; preds = %10
  %12 = getelementptr inbounds i8, ptr %1, i64 8
  %13 = load ptr, ptr %12, align 8
  %14 = load ptr, ptr %13, align 8
  %.not11 = icmp eq ptr %14, %3
  %. = select i1 %.not11, ptr %1, ptr null
  br label %15

15:                                               ; preds = %11, %10, %5
  %.0 = phi ptr [ null, %5 ], [ null, %10 ], [ %., %11 ]
  ret ptr %.0
}